; Function Attrs: nounwind uwtable
define ptr @blobGetData(ptr noundef readonly %0) local_unnamed_addr #2 {
  %.not = icmp eq ptr %0, null
  br i1 %.not, label %2, label %3

2:                                                ; preds = %1
  tail call void @__assert_fail(ptr noundef nonnull @.str.1, ptr noundef nonnull @.str.2, i32 noundef 277, ptr noundef nonnull @__PRETTY_FUNCTION__.blobGetData) #17
  unreachable

3:                                                ; preds = %1
  %4 = getelementptr inbounds i8, ptr %0, i64 16
  %5 = load i64, ptr %4, align 8
  %6 = icmp eq i64 %5, 0
  br i1 %6, label %10, label %7

7:                                                ; preds = %3
  %8 = getelementptr inbounds i8, ptr %0, i64 8
  %9 = load ptr, ptr %8, align 8
  br label %10

10:                                               ; preds = %3, %7
  %.0 = phi ptr [ %9, %7 ], [ null, %3 ]
  ret ptr %.0
}